target datalayout = "e-m:e-p270:32:32-p271:32:32-p272:64:64-i64:64-i128:128-f80:128-n8:16:32:64-S128"
target triple = "x86_64-pc-linux-gnu"

%class.QPointF = type { double, double }
%class.QColor = type <{ i32, %"union.QColor::CT", [2 x i8] }>
%"union.QColor::CT" = type { %struct.anon }
%struct.anon = type { i16, i16, i16, i16, i16 }
%class.TFHandle = type <{ %class.Handle, i32, [4 x i8], ptr, i8, [7 x i8] }>
%class.Handle = type { %class.QGraphicsObject, %class.QColor, i32, ptr }
%class.QGraphicsObject = type { %class.QObject, %class.QGraphicsItem }
%class.QObject = type { ptr, %class.QScopedPointer }
%class.QScopedPointer = type { ptr }
%class.QGraphicsItem = type { ptr, %class.QScopedPointer.4 }
%class.QScopedPointer.4 = type { ptr }
%struct.TF_KEY = type { float, float }
%class.QRect = type { i32, i32, i32, i32 }
%struct.CHART_INFO = type { ptr, float, float, float, float, i32, i32 }
%class.QWidget = type { %class.QObject, %class.QPaintDevice, ptr }
%class.QPaintDevice = type { ptr, i16, ptr }
%class.QWidgetData = type { i64, i32, %class.QFlags, i32, %class.QRect, [4 x i8], %class.QPalette, %class.QFont, %class.QRect }
%class.QFlags = type { i32 }
%class.QPalette = type <{ ptr, %union.anon, [4 x i8] }>
%union.anon = type { %"struct.QPalette::Data" }
%"struct.QPalette::Data" = type { i32 }
%class.QFont = type <{ %class.QExplicitlySharedDataPointer, i32, [4 x i8] }>
%class.QExplicitlySharedDataPointer = type { ptr }
%class.TransferFunction = type <{ [3 x %class.TfChannel], [3 x i32], [1024 x %class.QColor], [4 x i8] }>
%class.TfChannel = type { i32, %"class.std::vector" }
%"class.std::vector" = type { %"struct.std::_Vector_base" }
%"struct.std::_Vector_base" = type { %"struct.std::_Vector_base<TF_KEY *, std::allocator<TF_KEY *>>::_Vector_impl" }
%"struct.std::_Vector_base<TF_KEY *, std::allocator<TF_KEY *>>::_Vector_impl" = type { %"struct.std::_Vector_base<TF_KEY *, std::allocator<TF_KEY *>>::_Vector_impl_data" }
%"struct.std::_Vector_base<TF_KEY *, std::allocator<TF_KEY *>>::_Vector_impl_data" = type { ptr, ptr, ptr }

@_ZN8TFHandle3_tfE = global ptr null, align 8
@_ZTV8TFHandle = external unnamed_addr constant { [20 x ptr], [39 x ptr] }, align 8

; Function Attrs: mustprogress nounwind uwtable
define linkonce_odr noundef i32 @_ZNK5QRect6heightEv(ptr noundef nonnull align 4 dereferenceable(16) %0) #1 comdat align 2 {
  %2 = alloca ptr, align 8
  store ptr %0, ptr %2, align 8
  %3 = load ptr, ptr %2, align 8
  %4 = getelementptr inbounds %class.QRect, ptr %3, i32 0, i32 3
  %5 = load i32, ptr %4, align 4
  %6 = getelementptr inbounds %class.QRect, ptr %3, i32 0, i32 1
  %7 = load i32, ptr %6, align 4
  %8 = sub nsw i32 %5, %7
  %9 = add nsw i32 %8, 1
  ret i32 %9
}

; Function Attrs: mustprogress nounwind uwtable
define linkonce_odr noundef i32 @_ZNK5QRect5widthEv(ptr noundef nonnull align 4 dereferenceable(16) %0) #1 comdat align 2 {
  %2 = alloca ptr, align 8
  store ptr %0, ptr %2, align 8
  %3 = load ptr, ptr %2, align 8
  %4 = getelementptr inbounds %class.QRect, ptr %3, i32 0, i32 2
  %5 = load i32, ptr %4, align 4
  %6 = getelementptr inbounds %class.QRect, ptr %3, i32 0, i32 0
  %7 = load i32, ptr %6, align 4
  %8 = sub nsw i32 %5, %7
  %9 = add nsw i32 %8, 1
  ret i32 %9
}

; Function Attrs: mustprogress nounwind uwtable
define linkonce_odr noundef i32 @_ZNK7QWidget6heightEv(ptr noundef nonnull align 8 dereferenceable(48) %0) #1 comdat align 2 {
  %2 = alloca ptr, align 8
  store ptr %0, ptr %2, align 8
  %3 = load ptr, ptr %2, align 8
  %4 = getelementptr inbounds %class.QWidget, ptr %3, i32 0, i32 2
  %5 = load ptr, ptr %4, align 8
  %6 = getelementptr inbounds %class.QWidgetData, ptr %5, i32 0, i32 4
  %7 = call noundef i32 @_ZNK5QRect6heightEv(ptr noundef nonnull align 4 dereferenceable(16) %6) #8
  ret i32 %7
}

; Function Attrs: mustprogress nounwind uwtable
define linkonce_odr noundef i32 @_ZNK7QWidget5widthEv(ptr noundef nonnull align 8 dereferenceable(48) %0) #1 comdat align 2 {
  %2 = alloca ptr, align 8
  store ptr %0, ptr %2, align 8
  %3 = load ptr, ptr %2, align 8
  %4 = getelementptr inbounds %class.QWidget, ptr %3, i32 0, i32 2
  %5 = load ptr, ptr %4, align 8
  %6 = getelementptr inbounds %class.QWidgetData, ptr %5, i32 0, i32 4
  %7 = call noundef i32 @_ZNK5QRect5widthEv(ptr noundef nonnull align 4 dereferenceable(16) %6) #8
  ret i32 %7
}

; Function Attrs: mustprogress uwtable
define linkonce_odr noundef float @_ZN10CHART_INFO11lowerBorderEv(ptr noundef nonnull align 8 dereferenceable(32) %0) #0 comdat align 2 {
  %2 = alloca ptr, align 8
  store ptr %0, ptr %2, align 8
  %3 = load ptr, ptr %2, align 8
  %4 = getelementptr inbounds %struct.CHART_INFO, ptr %3, i32 0, i32 0
  %5 = load ptr, ptr %4, align 8
  %6 = call noundef i32 @_ZNK7QWidget6heightEv(ptr noundef nonnull align 8 dereferenceable(48) %5)
  %7 = sitofp i32 %6 to float
  %8 = fsub float %7, 1.000000e+01
  ret float %8
}

; Function Attrs: mustprogress uwtable
define linkonce_odr noundef float @_ZN10CHART_INFO11rightBorderEv(ptr noundef nonnull align 8 dereferenceable(32) %0) #0 comdat align 2 {
  %2 = alloca ptr, align 8
  store ptr %0, ptr %2, align 8
  %3 = load ptr, ptr %2, align 8
  %4 = getelementptr inbounds %struct.CHART_INFO, ptr %3, i32 0, i32 0
  %5 = load ptr, ptr %4, align 8
  %6 = call noundef i32 @_ZNK7QWidget5widthEv(ptr noundef nonnull align 8 dereferenceable(48) %5)
  %7 = sitofp i32 %6 to float
  %8 = fsub float %7, 1.000000e+01
  ret float %8
}

; Function Attrs: mustprogress nounwind uwtable
define linkonce_odr noundef nonnull align 8 dereferenceable(32) ptr @_ZN16TransferFunctionixEi(ptr noundef nonnull align 8 dereferenceable(16492) %0, i32 noundef %1) #1 comdat align 2 {
  %3 = alloca ptr, align 8
  %4 = alloca i32, align 4
  store ptr %0, ptr %3, align 8
  store i32 %1, ptr %4, align 4
  %5 = load ptr, ptr %3, align 8
  %6 = getelementptr inbounds %class.TransferFunction, ptr %5, i32 0, i32 0
  %7 = getelementptr inbounds %class.TransferFunction, ptr %5, i32 0, i32 1
  %8 = load i32, ptr %4, align 4
  %9 = sext i32 %8 to i64
  %10 = getelementptr inbounds [3 x i32], ptr %7, i64 0, i64 %9
  %11 = load i32, ptr %10, align 4
  %12 = sext i32 %11 to i64
  %13 = getelementptr inbounds [3 x %class.TfChannel], ptr %6, i64 0, i64 %12
  ret ptr %13
}

; Function Attrs: mustprogress nounwind uwtable
define linkonce_odr noundef i32 @_ZN8TFHandle10getChannelEv(ptr noundef nonnull align 8 dereferenceable(81) %0) #1 comdat align 2 {
  %2 = alloca ptr, align 8
  store ptr %0, ptr %2, align 8
  %3 = load ptr, ptr %2, align 8
  %4 = getelementptr inbounds %class.TFHandle, ptr %3, i32 0, i32 1
  %5 = load i32, ptr %4, align 8
  ret i32 %5
}

; Function Attrs: mustprogress uwtable
define linkonce_odr noundef float @_ZN10CHART_INFO11chartHeightEv(ptr noundef nonnull align 8 dereferenceable(32) %0) #0 comdat align 2 {
  %2 = alloca ptr, align 8
  store ptr %0, ptr %2, align 8
  %3 = load ptr, ptr %2, align 8
  %4 = call noundef float @_ZN10CHART_INFO11lowerBorderEv(ptr noundef nonnull align 8 dereferenceable(32) %3)
  %5 = call noundef float @_ZN10CHART_INFO11upperBorderEv(ptr noundef nonnull align 8 dereferenceable(32) %3)
  %6 = fsub float %4, %5
  ret float %6
}

; Function Attrs: mustprogress nounwind uwtable
define linkonce_odr noundef float @_ZN10CHART_INFO11upperBorderEv(ptr noundef nonnull align 8 dereferenceable(32) %0) #1 comdat align 2 {
  %2 = alloca ptr, align 8
  store ptr %0, ptr %2, align 8
  ret float 1.000000e+01
}

; Function Attrs: mustprogress nounwind uwtable
define linkonce_odr noundef double @_ZNK7QPointF1yEv(ptr noundef nonnull align 8 dereferenceable(16) %0) #1 comdat align 2 {
  %2 = alloca ptr, align 8
  store ptr %0, ptr %2, align 8
  %3 = load ptr, ptr %2, align 8
  %4 = getelementptr inbounds %class.QPointF, ptr %3, i32 0, i32 1
  %5 = load double, ptr %4, align 8
  ret double %5
}

; Function Attrs: mustprogress uwtable
define linkonce_odr noundef float @_ZN10CHART_INFO10chartWidthEv(ptr noundef nonnull align 8 dereferenceable(32) %0) #0 comdat align 2 {
  %2 = alloca ptr, align 8
  store ptr %0, ptr %2, align 8
  %3 = load ptr, ptr %2, align 8
  %4 = call noundef float @_ZN10CHART_INFO11rightBorderEv(ptr noundef nonnull align 8 dereferenceable(32) %3)
  %5 = call noundef float @_ZN10CHART_INFO10leftBorderEv(ptr noundef nonnull align 8 dereferenceable(32) %3)
  %6 = fsub float %4, %5
  ret float %6
}

; Function Attrs: mustprogress nounwind uwtable
define linkonce_odr noundef float @_ZN10CHART_INFO10leftBorderEv(ptr noundef nonnull align 8 dereferenceable(32) %0) #1 comdat align 2 {
  %2 = alloca ptr, align 8
  store ptr %0, ptr %2, align 8
  ret float 1.000000e+01
}

; Function Attrs: mustprogress nounwind uwtable
define linkonce_odr noundef double @_ZNK7QPointF1xEv(ptr noundef nonnull align 8 dereferenceable(16) %0) #1 comdat align 2 {
  %2 = alloca ptr, align 8
  store ptr %0, ptr %2, align 8
  %3 = load ptr, ptr %2, align 8
  %4 = getelementptr inbounds %class.QPointF, ptr %3, i32 0, i32 0
  %5 = load double, ptr %4, align 8
  ret double %5
}

; Function Attrs: mustprogress uwtable
define void @_ZN8TFHandle20updateTfHandlesStateE7QPointF(ptr noundef nonnull align 8 dereferenceable(81) %0, double %1, double %2) #0 align 2 {
  %4 = alloca %class.QPointF, align 8
  %5 = alloca ptr, align 8
  %6 = getelementptr inbounds { double, double }, ptr %4, i32 0, i32 0
  store double %1, ptr %6, align 8
  %7 = getelementptr inbounds { double, double }, ptr %4, i32 0, i32 1
  store double %2, ptr %7, align 8
  store ptr %0, ptr %5, align 8
  %8 = load ptr, ptr %5, align 8
  %9 = call noundef double @_ZNK7QPointF1xEv(ptr noundef nonnull align 8 dereferenceable(16) %4)
  %10 = getelementptr inbounds %class.Handle, ptr %8, i32 0, i32 3
  %11 = load ptr, ptr %10, align 8
  %12 = call noundef float @_ZN10CHART_INFO10leftBorderEv(ptr noundef nonnull align 8 dereferenceable(32) %11)
  %13 = fpext float %12 to double
  %14 = fsub double %9, %13
  %15 = fptrunc double %14 to float
  %16 = getelementptr inbounds %class.Handle, ptr %8, i32 0, i32 3
  %17 = load ptr, ptr %16, align 8
  %18 = call noundef float @_ZN10CHART_INFO10chartWidthEv(ptr noundef nonnull align 8 dereferenceable(32) %17)
  %19 = call noundef float @_Z21absolute2RelativeValfff(float noundef %15, float noundef %18)
  %20 = getelementptr inbounds %class.TFHandle, ptr %8, i32 0, i32 3
  %21 = load ptr, ptr %20, align 8
  %22 = getelementptr inbounds %struct.TF_KEY, ptr %21, i32 0, i32 0
  store float %19, ptr %22, align 4
  %23 = call noundef double @_ZNK7QPointF1yEv(ptr noundef nonnull align 8 dereferenceable(16) %4)
  %24 = getelementptr inbounds %class.Handle, ptr %8, i32 0, i32 3
  %25 = load ptr, ptr %24, align 8
  %26 = call noundef float @_ZN10CHART_INFO11upperBorderEv(ptr noundef nonnull align 8 dereferenceable(32) %25)
  %27 = fpext float %26 to double
  %28 = fsub double %23, %27
  %29 = fptrunc double %28 to float
  %30 = getelementptr inbounds %class.Handle, ptr %8, i32 0, i32 3
  %31 = load ptr, ptr %30, align 8
  %32 = call noundef float @_ZN10CHART_INFO11chartHeightEv(ptr noundef nonnull align 8 dereferenceable(32) %31)
  %33 = call noundef float @_Z21absolute2RelativeValfff(float noundef %29, float noundef %32)
  %34 = fsub float 1.000000e+00, %33
  %35 = getelementptr inbounds %class.TFHandle, ptr %8, i32 0, i32 3
  %36 = load ptr, ptr %35, align 8
  %37 = getelementptr inbounds %struct.TF_KEY, ptr %36, i32 0, i32 1
  store float %34, ptr %37, align 4
  %38 = load ptr, ptr @_ZN8TFHandle3_tfE, align 8
  %39 = call noundef i32 @_ZN8TFHandle10getChannelEv(ptr noundef nonnull align 8 dereferenceable(81) %8)
  %40 = call noundef nonnull align 8 dereferenceable(32) ptr @_ZN16TransferFunctionixEi(ptr noundef nonnull align 8 dereferenceable(16492) %38, i32 noundef %39)
  call void @_ZN9TfChannel15updateKeysOrderEv(ptr noundef nonnull align 8 dereferenceable(32) %40)
  ret void
}

; Function Attrs: mustprogress nounwind uwtable
define linkonce_odr void @_ZN6QColorC2ERKS_(ptr noundef nonnull align 4 dereferenceable(14) %0, ptr noundef nonnull align 4 dereferenceable(14) %1) unnamed_addr #1 comdat align 2 {
  %3 = alloca ptr, align 8
  %4 = alloca ptr, align 8
  store ptr %0, ptr %3, align 8
  store ptr %1, ptr %4, align 8
  %5 = load ptr, ptr %3, align 8
  %6 = getelementptr inbounds %class.QColor, ptr %5, i32 0, i32 0
  %7 = load ptr, ptr %4, align 8
  %8 = getelementptr inbounds %class.QColor, ptr %7, i32 0, i32 0
  %9 = load i32, ptr %8, align 4
  store i32 %9, ptr %6, align 4
  %10 = getelementptr inbounds %class.QColor, ptr %5, i32 0, i32 1
  %11 = load ptr, ptr %4, align 8
  %12 = getelementptr inbounds %class.QColor, ptr %11, i32 0, i32 1
  call void @llvm.memcpy.p0.p0.i64(ptr align 4 %10, ptr align 4 %12, i64 10, i1 false)
  ret void
}

; Function Attrs: mustprogress uwtable
define void @_ZN8TFHandleC2EP10CHART_INFO6QColor7QPointFP6TF_KEYii(ptr noundef nonnull align 8 dereferenceable(81) %0, ptr noundef %1, ptr noundef %2, double %3, double %4, ptr noundef %5, i32 noundef %6, i32 noundef %7) unnamed_addr #0 align 2 personality ptr @__gxx_personality_v0 {
  %9 = alloca %class.QPointF, align 8
  %10 = alloca ptr, align 8
  %11 = alloca ptr, align 8
  %12 = alloca ptr, align 8
  %13 = alloca ptr, align 8
  %14 = alloca i32, align 4
  %15 = alloca i32, align 4
  %16 = alloca %class.QColor, align 4
  %17 = alloca %class.QPointF, align 8
  %18 = alloca %class.QColor, align 4
  %19 = alloca %class.QColor, align 4
  %20 = alloca %class.QColor, align 4
  %21 = alloca ptr, align 8
  %22 = alloca i32, align 4
  %23 = alloca %class.QPointF, align 8
  %24 = getelementptr inbounds { double, double }, ptr %9, i32 0, i32 0
  store double %3, ptr %24, align 8
  %25 = getelementptr inbounds { double, double }, ptr %9, i32 0, i32 1
  store double %4, ptr %25, align 8
  store ptr %0, ptr %10, align 8
  store ptr %1, ptr %11, align 8
  store ptr %2, ptr %12, align 8
  store ptr %5, ptr %13, align 8
  store i32 %6, ptr %14, align 4
  store i32 %7, ptr %15, align 4
  %26 = load ptr, ptr %10, align 8
  %27 = load ptr, ptr %11, align 8
  call void @_ZN6QColorC2ERKS_(ptr noundef nonnull align 4 dereferenceable(14) %16, ptr noundef nonnull align 4 dereferenceable(14) %2) #8
  call void @llvm.memcpy.p0.p0.i64(ptr align 8 %17, ptr align 8 %9, i64 16, i1 false)
  %28 = load i32, ptr %14, align 4
  %29 = load i32, ptr %15, align 4
  %30 = getelementptr inbounds { double, double }, ptr %17, i32 0, i32 0
  %31 = load double, ptr %30, align 8
  %32 = getelementptr inbounds { double, double }, ptr %17, i32 0, i32 1
  %33 = load double, ptr %32, align 8
  call void @_ZN6HandleC2EP10CHART_INFO6QColor7QPointFii(ptr noundef nonnull align 8 dereferenceable(64) %26, ptr noundef %27, ptr noundef %16, double %31, double %33, i32 noundef %28, i32 noundef %29)
  store ptr getelementptr inbounds ({ [20 x ptr], [39 x ptr] }, ptr @_ZTV8TFHandle, i32 0, i32 0, i32 2), ptr %26, align 8
  %34 = getelementptr inbounds i8, ptr %26, i64 16
  store ptr getelementptr inbounds ({ [20 x ptr], [39 x ptr] }, ptr @_ZTV8TFHandle, i32 0, i32 1, i32 2), ptr %34, align 8
  call void @_ZN6QColorC1EN2Qt11GlobalColorE(ptr noundef nonnull align 4 dereferenceable(14) %18, i32 noundef 7) #8
  %35 = call noundef zeroext i1 @_ZNK6QColoreqERKS_(ptr noundef nonnull align 4 dereferenceable(14) %2, ptr noundef nonnull align 4 dereferenceable(14) %18) #8
  br i1 %35, label %36, label %38

36:                                               ; preds = %8
  %37 = getelementptr inbounds %class.TFHandle, ptr %26, i32 0, i32 1
  store i32 0, ptr %37, align 8
  br label %50

38:                                               ; preds = %8
  call void @_ZN6QColorC1EN2Qt11GlobalColorE(ptr noundef nonnull align 4 dereferenceable(14) %19, i32 noundef 8) #8
  %39 = call noundef zeroext i1 @_ZNK6QColoreqERKS_(ptr noundef nonnull align 4 dereferenceable(14) %2, ptr noundef nonnull align 4 dereferenceable(14) %19) #8
  br i1 %39, label %40, label %42

40:                                               ; preds = %38
  %41 = getelementptr inbounds %class.TFHandle, ptr %26, i32 0, i32 1
  store i32 1, ptr %41, align 8
  br label %49

42:                                               ; preds = %38
  call void @_ZN6QColorC1EN2Qt11GlobalColorE(ptr noundef nonnull align 4 dereferenceable(14) %20, i32 noundef 9) #8
  %43 = call noundef zeroext i1 @_ZNK6QColoreqERKS_(ptr noundef nonnull align 4 dereferenceable(14) %2, ptr noundef nonnull align 4 dereferenceable(14) %20) #8
  br i1 %43, label %44, label %46

44:                                               ; preds = %42
  %45 = getelementptr inbounds %class.TFHandle, ptr %26, i32 0, i32 1
  store i32 2, ptr %45, align 8
  br label %48

46:                                               ; preds = %42
  %47 = getelementptr inbounds %class.TFHandle, ptr %26, i32 0, i32 1
  store i32 -1, ptr %47, align 8
  br label %48

48:                                               ; preds = %46, %44
  br label %49

49:                                               ; preds = %48, %40
  br label %50

50:                                               ; preds = %49, %36
  %51 = load ptr, ptr %13, align 8
  %52 = getelementptr inbounds %class.TFHandle, ptr %26, i32 0, i32 3
  store ptr %51, ptr %52, align 8
  %53 = getelementptr inbounds %class.TFHandle, ptr %26, i32 0, i32 4
  store i8 0, ptr %53, align 8
  %54 = getelementptr inbounds i8, ptr %26, i64 16
  %55 = load i32, ptr %14, align 4
  %56 = sitofp i32 %55 to double
  invoke void @_ZN13QGraphicsItem9setZValueEd(ptr noundef nonnull align 8 dereferenceable(16) %54, double noundef %56)
          to label %57 unwind label %63

57:                                               ; preds = %50
  call void @llvm.memcpy.p0.p0.i64(ptr align 8 %23, ptr align 8 %9, i64 16, i1 false)
  %58 = getelementptr inbounds { double, double }, ptr %23, i32 0, i32 0
  %59 = load double, ptr %58, align 8
  %60 = getelementptr inbounds { double, double }, ptr %23, i32 0, i32 1
  %61 = load double, ptr %60, align 8
  invoke void @_ZN8TFHandle20updateTfHandlesStateE7QPointF(ptr noundef nonnull align 8 dereferenceable(81) %26, double %59, double %61)
          to label %62 unwind label %63

62:                                               ; preds = %57
  ret void

63:                                               ; preds = %57, %50
  %64 = landingpad { ptr, i32 }
          cleanup
  %65 = extractvalue { ptr, i32 } %64, 0
  store ptr %65, ptr %21, align 8
  %66 = extractvalue { ptr, i32 } %64, 1
  store i32 %66, ptr %22, align 4
  call void @_ZN6HandleD2Ev(ptr noundef nonnull align 8 dereferenceable(64) %26) #8
  br label %67

67:                                               ; preds = %63
  %68 = load ptr, ptr %21, align 8
  %69 = load i32, ptr %22, align 4
  %70 = insertvalue { ptr, i32 } poison, ptr %68, 0
  %71 = insertvalue { ptr, i32 } %70, i32 %69, 1
  resume { ptr, i32 } %71
}