; Function Attrs: mustprogress uwtable
define void @_ZN8TFHandleC2EP10CHART_INFO6QColor7QPointFP6TF_KEYii(ptr noundef nonnull align 8 dereferenceable(81) %0, ptr noundef %1, ptr noundef %2, double %3, double %4, ptr noundef %5, i32 noundef %6, i32 noundef %7) unnamed_addr #0 align 2 personality ptr @__gxx_personality_v0 {
  %9 = alloca %class.QColor, align 4
  %10 = alloca %class.QColor, align 4
  %11 = alloca %class.QColor, align 4
  %12 = alloca %class.QColor, align 4
  %13 = load i32, ptr %2, align 4
  store i32 %13, ptr %9, align 4
  %14 = getelementptr inbounds i8, ptr %9, i64 4
  %15 = getelementptr inbounds i8, ptr %2, i64 4
  call void @llvm.memcpy.p0.p0.i64(ptr noundef nonnull align 4 dereferenceable(10) %14, ptr noundef nonnull align 4 dereferenceable(10) %15, i64 10, i1 false)
  call void @_ZN6HandleC2EP10CHART_INFO6QColor7QPointFii(ptr noundef nonnull align 8 dereferenceable(64) %0, ptr noundef %1, ptr noundef nonnull %9, double %3, double %4, i32 noundef %6, i32 noundef %7)
  store ptr getelementptr inbounds ({ [20 x ptr], [39 x ptr] }, ptr @_ZTV8TFHandle, i64 0, i32 0, i64 2), ptr %0, align 8
  %16 = getelementptr inbounds i8, ptr %0, i64 16
  store ptr getelementptr inbounds ({ [20 x ptr], [39 x ptr] }, ptr @_ZTV8TFHandle, i64 0, i32 1, i64 2), ptr %16, align 8
  call void @_ZN6QColorC1EN2Qt11GlobalColorE(ptr noundef nonnull align 4 dereferenceable(14) %10, i32 noundef 7) #12
  %17 = call noundef zeroext i1 @_ZNK6QColoreqERKS_(ptr noundef nonnull align 4 dereferenceable(14) %2, ptr noundef nonnull align 4 dereferenceable(14) %10) #12
  br i1 %17, label %18, label %20

18:                                               ; preds = %8
  %19 = getelementptr inbounds i8, ptr %0, i64 64
  store i32 0, ptr %19, align 8
  br label %29

20:                                               ; preds = %8
  call void @_ZN6QColorC1EN2Qt11GlobalColorE(ptr noundef nonnull align 4 dereferenceable(14) %11, i32 noundef 8) #12
  %21 = call noundef zeroext i1 @_ZNK6QColoreqERKS_(ptr noundef nonnull align 4 dereferenceable(14) %2, ptr noundef nonnull align 4 dereferenceable(14) %11) #12
  br i1 %21, label %22, label %24

22:                                               ; preds = %20
  %23 = getelementptr inbounds i8, ptr %0, i64 64
  store i32 1, ptr %23, align 8
  br label %29

24:                                               ; preds = %20
  call void @_ZN6QColorC1EN2Qt11GlobalColorE(ptr noundef nonnull align 4 dereferenceable(14) %12, i32 noundef 9) #12
  %25 = call noundef zeroext i1 @_ZNK6QColoreqERKS_(ptr noundef nonnull align 4 dereferenceable(14) %2, ptr noundef nonnull align 4 dereferenceable(14) %12) #12
  %26 = getelementptr inbounds i8, ptr %0, i64 64
  br i1 %25, label %27, label %28

27:                                               ; preds = %24
  store i32 2, ptr %26, align 8
  br label %29

28:                                               ; preds = %24
  store i32 -1, ptr %26, align 8
  br label %29

29:                                               ; preds = %22, %28, %27, %18
  %30 = getelementptr inbounds i8, ptr %0, i64 72
  store ptr %5, ptr %30, align 8
  %31 = getelementptr inbounds i8, ptr %0, i64 80
  store i8 0, ptr %31, align 8
  %32 = sitofp i32 %6 to double
  invoke void @_ZN13QGraphicsItem9setZValueEd(ptr noundef nonnull align 8 dereferenceable(16) %16, double noundef %32)
          to label %33 unwind label %80

33:                                               ; preds = %29
  %34 = getelementptr inbounds i8, ptr %0, i64 56
  %35 = fadd double %3, -1.000000e+01
  %36 = fptrunc double %35 to float
  %37 = load ptr, ptr %34, align 8
  %38 = load ptr, ptr %37, align 8
  %39 = getelementptr inbounds i8, ptr %38, i64 40
  %40 = load ptr, ptr %39, align 8
  %41 = getelementptr inbounds i8, ptr %40, i64 20
  %42 = getelementptr inbounds i8, ptr %40, i64 28
  %43 = load i32, ptr %42, align 4
  %44 = load i32, ptr %41, align 4
  %45 = add i32 %43, 1
  %46 = sub i32 %45, %44
  %47 = sitofp i32 %46 to float
  %48 = fadd float %47, -1.000000e+01
  %49 = fadd float %48, -1.000000e+01
  %50 = invoke noundef float @_Z21absolute2RelativeValfff(float noundef %36, float noundef %49)
          to label %.noexc unwind label %80

.noexc:                                           ; preds = %33
  %51 = load ptr, ptr %30, align 8
  store float %50, ptr %51, align 4
  %52 = fadd double %4, -1.000000e+01
  %53 = fptrunc double %52 to float
  %54 = load ptr, ptr %34, align 8
  %55 = load ptr, ptr %54, align 8
  %56 = getelementptr inbounds i8, ptr %55, i64 40
  %57 = load ptr, ptr %56, align 8
  %58 = getelementptr inbounds i8, ptr %57, i64 32
  %59 = load i32, ptr %58, align 4
  %60 = getelementptr inbounds i8, ptr %57, i64 24
  %61 = load i32, ptr %60, align 4
  %62 = add i32 %59, 1
  %63 = sub i32 %62, %61
  %64 = sitofp i32 %63 to float
  %65 = fadd float %64, -1.000000e+01
  %66 = fadd float %65, -1.000000e+01
  %67 = invoke noundef float @_Z21absolute2RelativeValfff(float noundef %53, float noundef %66)
          to label %.noexc10 unwind label %80

.noexc10:                                         ; preds = %.noexc
  %68 = fsub float 1.000000e+00, %67
  %69 = load ptr, ptr %30, align 8
  %70 = getelementptr inbounds i8, ptr %69, i64 4
  store float %68, ptr %70, align 4
  %71 = load ptr, ptr @_ZN8TFHandle3_tfE, align 8
  %72 = getelementptr inbounds i8, ptr %0, i64 64
  %73 = load i32, ptr %72, align 8
  %74 = getelementptr inbounds i8, ptr %71, i64 96
  %75 = sext i32 %73 to i64
  %76 = getelementptr inbounds [3 x i32], ptr %74, i64 0, i64 %75
  %77 = load i32, ptr %76, align 4
  %78 = sext i32 %77 to i64
  %79 = getelementptr inbounds [3 x %class.TfChannel], ptr %71, i64 0, i64 %78
  invoke void @_ZN9TfChannel15updateKeysOrderEv(ptr noundef nonnull align 8 dereferenceable(32) %79)
          to label %_ZN8TFHandle20updateTfHandlesStateE7QPointF.exit unwind label %80

_ZN8TFHandle20updateTfHandlesStateE7QPointF.exit: ; preds = %.noexc10
  ret void

80:                                               ; preds = %.noexc10, %.noexc, %33, %29
  %81 = landingpad { ptr, i32 }
          cleanup
  call void @_ZN6HandleD2Ev(ptr noundef nonnull align 8 dereferenceable(64) %0) #12
  resume { ptr, i32 } %81
}